; Function Attrs: mustprogress uwtable
define hidden noalias noundef ptr @_Z4whenP5probeP6tactic(ptr noundef %p, ptr noundef %t) local_unnamed_addr #3 personality ptr @__gxx_personality_v0 {
entry:
  %call = tail call noundef ptr @_Z14mk_skip_tacticv()
  %call.i = tail call noalias noundef ptr @_ZN6memory8allocateEm(i64 noundef 40)
  %m_ref_count.i.i.i.i = getelementptr inbounds i8, ptr %call.i, i64 8
  store i32 0, ptr %m_ref_count.i.i.i.i, align 8
  %m_t1.i.i.i = getelementptr inbounds i8, ptr %call.i, i64 16
  store ptr %t, ptr %m_t1.i.i.i, align 8
  %tobool.not.i.i.i.i.i = icmp eq ptr %t, null
  br i1 %tobool.not.i.i.i.i.i, label %invoke.cont.i.i.i, label %if.then.i.i.i.i.i

if.then.i.i.i.i.i:                                ; preds = %entry
  %m_ref_count.i.i.i.i.i.i = getelementptr inbounds i8, ptr %t, i64 8
  %0 = load i32, ptr %m_ref_count.i.i.i.i.i.i, align 8
  %inc.i.i.i.i.i.i = add i32 %0, 1
  store i32 %inc.i.i.i.i.i.i, ptr %m_ref_count.i.i.i.i.i.i, align 8
  br label %invoke.cont.i.i.i

invoke.cont.i.i.i:                                ; preds = %if.then.i.i.i.i.i, %entry
  %m_t2.i.i.i = getelementptr inbounds i8, ptr %call.i, i64 24
  store ptr %call, ptr %m_t2.i.i.i, align 8
  %tobool.not.i.i2.i.i.i = icmp eq ptr %call, null
  br i1 %tobool.not.i.i2.i.i.i, label %_ZN15binary_tacticalC2EP6tacticS1_.exit.i.i, label %if.then.i.i3.i.i.i

if.then.i.i3.i.i.i:                               ; preds = %invoke.cont.i.i.i
  %m_ref_count.i.i.i4.i.i.i = getelementptr inbounds i8, ptr %call, i64 8
  %1 = load i32, ptr %m_ref_count.i.i.i4.i.i.i, align 8
  %inc.i.i.i5.i.i.i = add i32 %1, 1
  store i32 %inc.i.i.i5.i.i.i, ptr %m_ref_count.i.i.i4.i.i.i, align 8
  br label %_ZN15binary_tacticalC2EP6tacticS1_.exit.i.i

_ZN15binary_tacticalC2EP6tacticS1_.exit.i.i:      ; preds = %if.then.i.i3.i.i.i, %invoke.cont.i.i.i
  store ptr getelementptr inbounds ({ [25 x ptr] }, ptr @_ZTV13cond_tactical, i64 0, i32 0, i64 2), ptr %call.i, align 8
  %m_p.i.i = getelementptr inbounds i8, ptr %call.i, i64 32
  store ptr %p, ptr %m_p.i.i, align 8
  %tobool.not.i.i.i.i = icmp eq ptr %p, null
  br i1 %tobool.not.i.i.i.i, label %_Z4condP5probeP6tacticS2_.exit, label %if.then.i.i.i.i

if.then.i.i.i.i:                                  ; preds = %_ZN15binary_tacticalC2EP6tacticS1_.exit.i.i
  %m_ref_count.i.i.i.i.i = getelementptr inbounds i8, ptr %p, i64 8
  %2 = load i32, ptr %m_ref_count.i.i.i.i.i, align 8
  %inc.i.i.i.i.i = add i32 %2, 1
  store i32 %inc.i.i.i.i.i, ptr %m_ref_count.i.i.i.i.i, align 8
  br label %_Z4condP5probeP6tacticS2_.exit

_Z4condP5probeP6tacticS2_.exit:                   ; preds = %_ZN15binary_tacticalC2EP6tacticS1_.exit.i.i, %if.then.i.i.i.i
  ret ptr %call.i
}